; Function Attrs: mustprogress uwtable
define void @_ZNK3gmx19VirtualSitesHandler9constructENS_8ArrayRefINS_11BasicVectorIfEEEES4_PA3_KfNS_14VSiteOperationE(ptr noundef nonnull readonly align 8 captures(none) dereferenceable(8) %0, ptr %1, ptr %2, ptr %3, ptr %4, ptr noundef %5, i32 noundef %6) local_unnamed_addr #8 align 2 {
  %8 = load ptr, ptr %0, align 8, !tbaa !4
  %9 = ptrtoint ptr %2 to i64
  %10 = ptrtoint ptr %1 to i64
  %11 = sub i64 %9, %10
  %12 = getelementptr inbounds nuw i8, ptr %1, i64 %11
  %13 = ptrtoint ptr %4 to i64
  %14 = ptrtoint ptr %3 to i64
  %15 = sub i64 %13, %14
  %16 = getelementptr inbounds nuw i8, ptr %3, i64 %15
  tail call void @_ZNK3gmx19VirtualSitesHandler4Impl9constructENS_8ArrayRefINS_11BasicVectorIfEEEES5_PA3_KfNS_14VSiteOperationE(ptr noundef nonnull align 8 dereferenceable(112) %8, ptr %1, ptr %12, ptr %3, ptr %16, ptr noundef %5, i32 noundef %6)
  ret void
}